; Function Attrs: mustprogress nofree nounwind willreturn memory(argmem: read) uwtable
define i32 @TextFindIndex(ptr noundef %0, ptr noundef readonly captures(none) %1) local_unnamed_addr #17 {
  %3 = tail call ptr @strstr(ptr noundef nonnull dereferenceable(1) %0, ptr noundef nonnull dereferenceable(1) %1) #43
  %.not = icmp eq ptr %3, null
  %4 = ptrtoint ptr %3 to i64
  %5 = ptrtoint ptr %0 to i64
  %6 = sub i64 %4, %5
  %7 = trunc i64 %6 to i32
  %.0 = select i1 %.not, i32 -1, i32 %7
  ret i32 %.0
}